target datalayout = "e-m:e-p270:32:32-p271:32:32-p272:64:64-i64:64-i128:128-f80:128-n8:16:32:64-S128"
target triple = "x86_64-pc-linux-gnu"

%"class.zxing::Ref.30" = type { ptr }

; Function Attrs: inlinehint mustprogress nounwind uwtable
define linkonce_odr hidden noundef float @_ZN5zxing6common9MathUtils8VecCrossEPfS2_(ptr noundef %0, ptr noundef %1) #6 comdat align 2 {
  %3 = alloca ptr, align 8
  %4 = alloca ptr, align 8
  store ptr %0, ptr %3, align 8, !tbaa !129
  store ptr %1, ptr %4, align 8, !tbaa !129
  %5 = load ptr, ptr %3, align 8, !tbaa !129
  %6 = getelementptr inbounds float, ptr %5, i64 0
  %7 = load float, ptr %6, align 4, !tbaa !80
  %8 = load ptr, ptr %4, align 8, !tbaa !129
  %9 = getelementptr inbounds float, ptr %8, i64 1
  %10 = load float, ptr %9, align 4, !tbaa !80
  %11 = load ptr, ptr %3, align 8, !tbaa !129
  %12 = getelementptr inbounds float, ptr %11, i64 1
  %13 = load float, ptr %12, align 4, !tbaa !80
  %14 = load ptr, ptr %4, align 8, !tbaa !129
  %15 = getelementptr inbounds float, ptr %14, i64 0
  %16 = load float, ptr %15, align 4, !tbaa !80
  %17 = fmul float %13, %16
  %18 = fneg float %17
  %19 = call float @llvm.fmuladd.f32(float %7, float %10, float %18)
  ret float %19
}

; Function Attrs: mustprogress nounwind uwtable
define linkonce_odr hidden noundef ptr @_ZNK5zxing3RefINS_11ResultPointEEptEv(ptr noundef nonnull align 8 dereferenceable(8) %0) #1 comdat align 2 {
  %2 = alloca ptr, align 8
  store ptr %0, ptr %2, align 8, !tbaa !102
  %3 = load ptr, ptr %2, align 8
  %4 = getelementptr inbounds nuw %"class.zxing::Ref.30", ptr %3, i32 0, i32 0
  %5 = load ptr, ptr %4, align 8, !tbaa !106
  ret ptr %5
}

; Function Attrs: mustprogress uwtable
define hidden noundef zeroext i1 @_ZN5zxing6qrcode8Detector24checkConvexQuadrilateralENS_3RefINS_11ResultPointEEES4_S4_S4_(ptr noundef nonnull align 8 dereferenceable(60) %0, ptr noundef %1, ptr noundef %2, ptr noundef %3, ptr noundef %4) #0 align 2 {
  %6 = alloca i1, align 1
  %7 = alloca ptr, align 8
  %8 = alloca ptr, align 8
  %9 = alloca ptr, align 8
  %10 = alloca ptr, align 8
  %11 = alloca ptr, align 8
  %12 = alloca [2 x float], align 4
  %13 = alloca [2 x float], align 4
  %14 = alloca [2 x float], align 4
  %15 = alloca [2 x float], align 4
  %16 = alloca float, align 4
  %17 = alloca float, align 4
  %18 = alloca float, align 4
  %19 = alloca float, align 4
  %20 = alloca i32, align 4
  store ptr %0, ptr %7, align 8, !tbaa !3
  store ptr %1, ptr %8, align 8, !tbaa !102
  store ptr %2, ptr %9, align 8, !tbaa !102
  store ptr %3, ptr %10, align 8, !tbaa !102
  store ptr %4, ptr %11, align 8, !tbaa !102
  call void @llvm.lifetime.start.p0(i64 8, ptr %12) #16
  call void @llvm.lifetime.start.p0(i64 8, ptr %13) #16
  call void @llvm.lifetime.start.p0(i64 8, ptr %14) #16
  call void @llvm.lifetime.start.p0(i64 8, ptr %15) #16
  %21 = call noundef ptr @_ZNK5zxing3RefINS_11ResultPointEEptEv(ptr noundef nonnull align 8 dereferenceable(8) %1)
  %22 = load ptr, ptr %21, align 8, !tbaa !12
  %23 = getelementptr inbounds ptr, ptr %22, i64 2
  %24 = load ptr, ptr %23, align 8
  %25 = call noundef float %24(ptr noundef nonnull align 8 dereferenceable(20) %21)
  %26 = call noundef ptr @_ZNK5zxing3RefINS_11ResultPointEEptEv(ptr noundef nonnull align 8 dereferenceable(8) %2)
  %27 = load ptr, ptr %26, align 8, !tbaa !12
  %28 = getelementptr inbounds ptr, ptr %27, i64 2
  %29 = load ptr, ptr %28, align 8
  %30 = call noundef float %29(ptr noundef nonnull align 8 dereferenceable(20) %26)
  %31 = fsub float %25, %30
  %32 = getelementptr inbounds [2 x float], ptr %12, i64 0, i64 0
  store float %31, ptr %32, align 4, !tbaa !80
  %33 = call noundef ptr @_ZNK5zxing3RefINS_11ResultPointEEptEv(ptr noundef nonnull align 8 dereferenceable(8) %1)
  %34 = load ptr, ptr %33, align 8, !tbaa !12
  %35 = getelementptr inbounds ptr, ptr %34, i64 3
  %36 = load ptr, ptr %35, align 8
  %37 = call noundef float %36(ptr noundef nonnull align 8 dereferenceable(20) %33)
  %38 = call noundef ptr @_ZNK5zxing3RefINS_11ResultPointEEptEv(ptr noundef nonnull align 8 dereferenceable(8) %2)
  %39 = load ptr, ptr %38, align 8, !tbaa !12
  %40 = getelementptr inbounds ptr, ptr %39, i64 3
  %41 = load ptr, ptr %40, align 8
  %42 = call noundef float %41(ptr noundef nonnull align 8 dereferenceable(20) %38)
  %43 = fsub float %37, %42
  %44 = getelementptr inbounds [2 x float], ptr %12, i64 0, i64 1
  store float %43, ptr %44, align 4, !tbaa !80
  %45 = call noundef ptr @_ZNK5zxing3RefINS_11ResultPointEEptEv(ptr noundef nonnull align 8 dereferenceable(8) %2)
  %46 = load ptr, ptr %45, align 8, !tbaa !12
  %47 = getelementptr inbounds ptr, ptr %46, i64 2
  %48 = load ptr, ptr %47, align 8
  %49 = call noundef float %48(ptr noundef nonnull align 8 dereferenceable(20) %45)
  %50 = call noundef ptr @_ZNK5zxing3RefINS_11ResultPointEEptEv(ptr noundef nonnull align 8 dereferenceable(8) %4)
  %51 = load ptr, ptr %50, align 8, !tbaa !12
  %52 = getelementptr inbounds ptr, ptr %51, i64 2
  %53 = load ptr, ptr %52, align 8
  %54 = call noundef float %53(ptr noundef nonnull align 8 dereferenceable(20) %50)
  %55 = fsub float %49, %54
  %56 = getelementptr inbounds [2 x float], ptr %13, i64 0, i64 0
  store float %55, ptr %56, align 4, !tbaa !80
  %57 = call noundef ptr @_ZNK5zxing3RefINS_11ResultPointEEptEv(ptr noundef nonnull align 8 dereferenceable(8) %2)
  %58 = load ptr, ptr %57, align 8, !tbaa !12
  %59 = getelementptr inbounds ptr, ptr %58, i64 3
  %60 = load ptr, ptr %59, align 8
  %61 = call noundef float %60(ptr noundef nonnull align 8 dereferenceable(20) %57)
  %62 = call noundef ptr @_ZNK5zxing3RefINS_11ResultPointEEptEv(ptr noundef nonnull align 8 dereferenceable(8) %4)
  %63 = load ptr, ptr %62, align 8, !tbaa !12
  %64 = getelementptr inbounds ptr, ptr %63, i64 3
  %65 = load ptr, ptr %64, align 8
  %66 = call noundef float %65(ptr noundef nonnull align 8 dereferenceable(20) %62)
  %67 = fsub float %61, %66
  %68 = getelementptr inbounds [2 x float], ptr %13, i64 0, i64 1
  store float %67, ptr %68, align 4, !tbaa !80
  %69 = call noundef ptr @_ZNK5zxing3RefINS_11ResultPointEEptEv(ptr noundef nonnull align 8 dereferenceable(8) %4)
  %70 = load ptr, ptr %69, align 8, !tbaa !12
  %71 = getelementptr inbounds ptr, ptr %70, i64 2
  %72 = load ptr, ptr %71, align 8
  %73 = call noundef float %72(ptr noundef nonnull align 8 dereferenceable(20) %69)
  %74 = call noundef ptr @_ZNK5zxing3RefINS_11ResultPointEEptEv(ptr noundef nonnull align 8 dereferenceable(8) %3)
  %75 = load ptr, ptr %74, align 8, !tbaa !12
  %76 = getelementptr inbounds ptr, ptr %75, i64 2
  %77 = load ptr, ptr %76, align 8
  %78 = call noundef float %77(ptr noundef nonnull align 8 dereferenceable(20) %74)
  %79 = fsub float %73, %78
  %80 = getelementptr inbounds [2 x float], ptr %14, i64 0, i64 0
  store float %79, ptr %80, align 4, !tbaa !80
  %81 = call noundef ptr @_ZNK5zxing3RefINS_11ResultPointEEptEv(ptr noundef nonnull align 8 dereferenceable(8) %4)
  %82 = load ptr, ptr %81, align 8, !tbaa !12
  %83 = getelementptr inbounds ptr, ptr %82, i64 3
  %84 = load ptr, ptr %83, align 8
  %85 = call noundef float %84(ptr noundef nonnull align 8 dereferenceable(20) %81)
  %86 = call noundef ptr @_ZNK5zxing3RefINS_11ResultPointEEptEv(ptr noundef nonnull align 8 dereferenceable(8) %3)
  %87 = load ptr, ptr %86, align 8, !tbaa !12
  %88 = getelementptr inbounds ptr, ptr %87, i64 3
  %89 = load ptr, ptr %88, align 8
  %90 = call noundef float %89(ptr noundef nonnull align 8 dereferenceable(20) %86)
  %91 = fsub float %85, %90
  %92 = getelementptr inbounds [2 x float], ptr %14, i64 0, i64 1
  store float %91, ptr %92, align 4, !tbaa !80
  %93 = call noundef ptr @_ZNK5zxing3RefINS_11ResultPointEEptEv(ptr noundef nonnull align 8 dereferenceable(8) %3)
  %94 = load ptr, ptr %93, align 8, !tbaa !12
  %95 = getelementptr inbounds ptr, ptr %94, i64 2
  %96 = load ptr, ptr %95, align 8
  %97 = call noundef float %96(ptr noundef nonnull align 8 dereferenceable(20) %93)
  %98 = call noundef ptr @_ZNK5zxing3RefINS_11ResultPointEEptEv(ptr noundef nonnull align 8 dereferenceable(8) %1)
  %99 = load ptr, ptr %98, align 8, !tbaa !12
  %100 = getelementptr inbounds ptr, ptr %99, i64 2
  %101 = load ptr, ptr %100, align 8
  %102 = call noundef float %101(ptr noundef nonnull align 8 dereferenceable(20) %98)
  %103 = fsub float %97, %102
  %104 = getelementptr inbounds [2 x float], ptr %15, i64 0, i64 0
  store float %103, ptr %104, align 4, !tbaa !80
  %105 = call noundef ptr @_ZNK5zxing3RefINS_11ResultPointEEptEv(ptr noundef nonnull align 8 dereferenceable(8) %3)
  %106 = load ptr, ptr %105, align 8, !tbaa !12
  %107 = getelementptr inbounds ptr, ptr %106, i64 3
  %108 = load ptr, ptr %107, align 8
  %109 = call noundef float %108(ptr noundef nonnull align 8 dereferenceable(20) %105)
  %110 = call noundef ptr @_ZNK5zxing3RefINS_11ResultPointEEptEv(ptr noundef nonnull align 8 dereferenceable(8) %1)
  %111 = load ptr, ptr %110, align 8, !tbaa !12
  %112 = getelementptr inbounds ptr, ptr %111, i64 3
  %113 = load ptr, ptr %112, align 8
  %114 = call noundef float %113(ptr noundef nonnull align 8 dereferenceable(20) %110)
  %115 = fsub float %109, %114
  %116 = getelementptr inbounds [2 x float], ptr %15, i64 0, i64 1
  store float %115, ptr %116, align 4, !tbaa !80
  call void @llvm.lifetime.start.p0(i64 4, ptr %16) #16
  %117 = getelementptr inbounds [2 x float], ptr %12, i64 0, i64 0
  %118 = getelementptr inbounds [2 x float], ptr %13, i64 0, i64 0
  %119 = call noundef float @_ZN5zxing6common9MathUtils8VecCrossEPfS2_(ptr noundef %117, ptr noundef %118)
  store float %119, ptr %16, align 4, !tbaa !80
  call void @llvm.lifetime.start.p0(i64 4, ptr %17) #16
  %120 = getelementptr inbounds [2 x float], ptr %13, i64 0, i64 0
  %121 = getelementptr inbounds [2 x float], ptr %14, i64 0, i64 0
  %122 = call noundef float @_ZN5zxing6common9MathUtils8VecCrossEPfS2_(ptr noundef %120, ptr noundef %121)
  store float %122, ptr %17, align 4, !tbaa !80
  call void @llvm.lifetime.start.p0(i64 4, ptr %18) #16
  %123 = getelementptr inbounds [2 x float], ptr %14, i64 0, i64 0
  %124 = getelementptr inbounds [2 x float], ptr %15, i64 0, i64 0
  %125 = call noundef float @_ZN5zxing6common9MathUtils8VecCrossEPfS2_(ptr noundef %123, ptr noundef %124)
  store float %125, ptr %18, align 4, !tbaa !80
  call void @llvm.lifetime.start.p0(i64 4, ptr %19) #16
  %126 = getelementptr inbounds [2 x float], ptr %15, i64 0, i64 0
  %127 = getelementptr inbounds [2 x float], ptr %12, i64 0, i64 0
  %128 = call noundef float @_ZN5zxing6common9MathUtils8VecCrossEPfS2_(ptr noundef %126, ptr noundef %127)
  store float %128, ptr %19, align 4, !tbaa !80
  %129 = load float, ptr %16, align 4, !tbaa !80
  %130 = fpext float %129 to double
  %131 = fcmp olt double %130, 0.000000e+00
  br i1 %131, label %132, label %144

132:                                              ; preds = %5
  %133 = load float, ptr %17, align 4, !tbaa !80
  %134 = fpext float %133 to double
  %135 = fcmp olt double %134, 0.000000e+00
  br i1 %135, label %136, label %144

136:                                              ; preds = %132
  %137 = load float, ptr %18, align 4, !tbaa !80
  %138 = fpext float %137 to double
  %139 = fcmp olt double %138, 0.000000e+00
  br i1 %139, label %140, label %144

140:                                              ; preds = %136
  %141 = load float, ptr %19, align 4, !tbaa !80
  %142 = fpext float %141 to double
  %143 = fcmp olt double %142, 0.000000e+00
  br i1 %143, label %160, label %144

144:                                              ; preds = %140, %136, %132, %5
  %145 = load float, ptr %16, align 4, !tbaa !80
  %146 = fpext float %145 to double
  %147 = fcmp ogt double %146, 0.000000e+00
  br i1 %147, label %148, label %161

148:                                              ; preds = %144
  %149 = load float, ptr %17, align 4, !tbaa !80
  %150 = fpext float %149 to double
  %151 = fcmp ogt double %150, 0.000000e+00
  br i1 %151, label %152, label %161

152:                                              ; preds = %148
  %153 = load float, ptr %18, align 4, !tbaa !80
  %154 = fpext float %153 to double
  %155 = fcmp ogt double %154, 0.000000e+00
  br i1 %155, label %156, label %161

156:                                              ; preds = %152
  %157 = load float, ptr %19, align 4, !tbaa !80
  %158 = fpext float %157 to double
  %159 = fcmp ogt double %158, 0.000000e+00
  br i1 %159, label %160, label %161

160:                                              ; preds = %156, %140
  store i1 true, ptr %6, align 1
  store i32 1, ptr %20, align 4
  br label %162

161:                                              ; preds = %156, %152, %148, %144
  store i1 false, ptr %6, align 1
  store i32 1, ptr %20, align 4
  br label %162

162:                                              ; preds = %161, %160
  call void @llvm.lifetime.end.p0(i64 4, ptr %19) #16
  call void @llvm.lifetime.end.p0(i64 4, ptr %18) #16
  call void @llvm.lifetime.end.p0(i64 4, ptr %17) #16
  call void @llvm.lifetime.end.p0(i64 4, ptr %16) #16
  call void @llvm.lifetime.end.p0(i64 8, ptr %15) #16
  call void @llvm.lifetime.end.p0(i64 8, ptr %14) #16
  call void @llvm.lifetime.end.p0(i64 8, ptr %13) #16
  call void @llvm.lifetime.end.p0(i64 8, ptr %12) #16
  %163 = load i1, ptr %6, align 1
  ret i1 %163
}