; Function Attrs: mustprogress uwtable
define hidden noundef zeroext i1 @_ZN5zxing6qrcode8Detector24checkConvexQuadrilateralENS_3RefINS_11ResultPointEEES4_S4_S4_(ptr noundef nonnull readnone align 8 captures(none) dereferenceable(60) %0, ptr noundef readonly captures(none) %1, ptr noundef readonly captures(none) %2, ptr noundef readonly captures(none) %3, ptr noundef readonly captures(none) %4) local_unnamed_addr #1 align 2 {
  %6 = load ptr, ptr %1, align 8, !tbaa !82
  %7 = load ptr, ptr %6, align 8, !tbaa !8
  %8 = getelementptr inbounds nuw i8, ptr %7, i64 16
  %9 = load ptr, ptr %8, align 8
  %10 = tail call noundef float %9(ptr noundef nonnull align 8 dereferenceable(20) %6)
  %11 = load ptr, ptr %2, align 8, !tbaa !82
  %12 = load ptr, ptr %11, align 8, !tbaa !8
  %13 = getelementptr inbounds nuw i8, ptr %12, i64 16
  %14 = load ptr, ptr %13, align 8
  %15 = tail call noundef float %14(ptr noundef nonnull align 8 dereferenceable(20) %11)
  %16 = fsub float %10, %15
  %17 = load ptr, ptr %1, align 8, !tbaa !82
  %18 = load ptr, ptr %17, align 8, !tbaa !8
  %19 = getelementptr inbounds nuw i8, ptr %18, i64 24
  %20 = load ptr, ptr %19, align 8
  %21 = tail call noundef float %20(ptr noundef nonnull align 8 dereferenceable(20) %17)
  %22 = load ptr, ptr %2, align 8, !tbaa !82
  %23 = load ptr, ptr %22, align 8, !tbaa !8
  %24 = getelementptr inbounds nuw i8, ptr %23, i64 24
  %25 = load ptr, ptr %24, align 8
  %26 = tail call noundef float %25(ptr noundef nonnull align 8 dereferenceable(20) %22)
  %27 = fsub float %21, %26
  %28 = load ptr, ptr %2, align 8, !tbaa !82
  %29 = load ptr, ptr %28, align 8, !tbaa !8
  %30 = getelementptr inbounds nuw i8, ptr %29, i64 16
  %31 = load ptr, ptr %30, align 8
  %32 = tail call noundef float %31(ptr noundef nonnull align 8 dereferenceable(20) %28)
  %33 = load ptr, ptr %4, align 8, !tbaa !82
  %34 = load ptr, ptr %33, align 8, !tbaa !8
  %35 = getelementptr inbounds nuw i8, ptr %34, i64 16
  %36 = load ptr, ptr %35, align 8
  %37 = tail call noundef float %36(ptr noundef nonnull align 8 dereferenceable(20) %33)
  %38 = fsub float %32, %37
  %39 = load ptr, ptr %2, align 8, !tbaa !82
  %40 = load ptr, ptr %39, align 8, !tbaa !8
  %41 = getelementptr inbounds nuw i8, ptr %40, i64 24
  %42 = load ptr, ptr %41, align 8
  %43 = tail call noundef float %42(ptr noundef nonnull align 8 dereferenceable(20) %39)
  %44 = load ptr, ptr %4, align 8, !tbaa !82
  %45 = load ptr, ptr %44, align 8, !tbaa !8
  %46 = getelementptr inbounds nuw i8, ptr %45, i64 24
  %47 = load ptr, ptr %46, align 8
  %48 = tail call noundef float %47(ptr noundef nonnull align 8 dereferenceable(20) %44)
  %49 = fsub float %43, %48
  %50 = load ptr, ptr %4, align 8, !tbaa !82
  %51 = load ptr, ptr %50, align 8, !tbaa !8
  %52 = getelementptr inbounds nuw i8, ptr %51, i64 16
  %53 = load ptr, ptr %52, align 8
  %54 = tail call noundef float %53(ptr noundef nonnull align 8 dereferenceable(20) %50)
  %55 = load ptr, ptr %3, align 8, !tbaa !82
  %56 = load ptr, ptr %55, align 8, !tbaa !8
  %57 = getelementptr inbounds nuw i8, ptr %56, i64 16
  %58 = load ptr, ptr %57, align 8
  %59 = tail call noundef float %58(ptr noundef nonnull align 8 dereferenceable(20) %55)
  %60 = fsub float %54, %59
  %61 = load ptr, ptr %4, align 8, !tbaa !82
  %62 = load ptr, ptr %61, align 8, !tbaa !8
  %63 = getelementptr inbounds nuw i8, ptr %62, i64 24
  %64 = load ptr, ptr %63, align 8
  %65 = tail call noundef float %64(ptr noundef nonnull align 8 dereferenceable(20) %61)
  %66 = load ptr, ptr %3, align 8, !tbaa !82
  %67 = load ptr, ptr %66, align 8, !tbaa !8
  %68 = getelementptr inbounds nuw i8, ptr %67, i64 24
  %69 = load ptr, ptr %68, align 8
  %70 = tail call noundef float %69(ptr noundef nonnull align 8 dereferenceable(20) %66)
  %71 = fsub float %65, %70
  %72 = load ptr, ptr %3, align 8, !tbaa !82
  %73 = load ptr, ptr %72, align 8, !tbaa !8
  %74 = getelementptr inbounds nuw i8, ptr %73, i64 16
  %75 = load ptr, ptr %74, align 8
  %76 = tail call noundef float %75(ptr noundef nonnull align 8 dereferenceable(20) %72)
  %77 = load ptr, ptr %1, align 8, !tbaa !82
  %78 = load ptr, ptr %77, align 8, !tbaa !8
  %79 = getelementptr inbounds nuw i8, ptr %78, i64 16
  %80 = load ptr, ptr %79, align 8
  %81 = tail call noundef float %80(ptr noundef nonnull align 8 dereferenceable(20) %77)
  %82 = fsub float %76, %81
  %83 = load ptr, ptr %3, align 8, !tbaa !82
  %84 = load ptr, ptr %83, align 8, !tbaa !8
  %85 = getelementptr inbounds nuw i8, ptr %84, i64 24
  %86 = load ptr, ptr %85, align 8
  %87 = tail call noundef float %86(ptr noundef nonnull align 8 dereferenceable(20) %83)
  %88 = load ptr, ptr %1, align 8, !tbaa !82
  %89 = load ptr, ptr %88, align 8, !tbaa !8
  %90 = getelementptr inbounds nuw i8, ptr %89, i64 24
  %91 = load ptr, ptr %90, align 8
  %92 = tail call noundef float %91(ptr noundef nonnull align 8 dereferenceable(20) %88)
  %93 = fsub float %87, %92
  %94 = fneg float %38
  %95 = fmul float %27, %94
  %96 = tail call noundef float @llvm.fmuladd.f32(float %16, float %49, float %95)
  %97 = fneg float %60
  %98 = fmul float %49, %97
  %99 = tail call noundef float @llvm.fmuladd.f32(float %38, float %71, float %98)
  %100 = fneg float %82
  %101 = fmul float %71, %100
  %102 = tail call noundef float @llvm.fmuladd.f32(float %60, float %93, float %101)
  %103 = fneg float %16
  %104 = fmul float %93, %103
  %105 = tail call noundef float @llvm.fmuladd.f32(float %82, float %27, float %104)
  %106 = fcmp olt float %96, 0.000000e+00
  %107 = fcmp olt float %99, 0.000000e+00
  %or.cond = and i1 %106, %107
  %108 = fcmp olt float %102, 0.000000e+00
  %or.cond9 = and i1 %or.cond, %108
  %109 = fcmp olt float %105, 0.000000e+00
  %or.cond10 = and i1 %or.cond9, %109
  br i1 %or.cond10, label %115, label %110

110:                                              ; preds = %5
  %111 = fcmp ogt float %96, 0.000000e+00
  %112 = fcmp ogt float %99, 0.000000e+00
  %or.cond11 = and i1 %111, %112
  %113 = fcmp ogt float %102, 0.000000e+00
  %or.cond12 = and i1 %or.cond11, %113
  %114 = fcmp ogt float %105, 0.000000e+00
  %or.cond13 = and i1 %or.cond12, %114
  br label %115

115:                                              ; preds = %110, %5
  %.0 = phi i1 [ true, %5 ], [ %or.cond13, %110 ]
  ret i1 %.0
}